; Function Attrs: mustprogress uwtable
define dso_local void @_ZN4i18n12phonenumbers12StringHolderC2Em(ptr noundef nonnull align 8 dereferenceable(48) %0, i64 noundef %1) unnamed_addr #0 align 2 {
  %3 = getelementptr inbounds nuw i8, ptr %0, i64 16
  %4 = tail call noundef ptr @_ZN4absl7debian216numbers_internal15FastIntToBufferEmPc(i64 noundef %1, ptr noundef nonnull %3)
  %5 = ptrtoint ptr %4 to i64
  %6 = ptrtoint ptr %3 to i64
  %7 = sub i64 %5, %6
  store ptr %3, ptr %0, align 8, !tbaa !15
  %8 = icmp sgt i64 %7, -1
  br i1 %8, label %_ZN4absl7debian28AlphaNumC2Em.exit, label %9, !prof !17

9:                                                ; preds = %2
  tail call void @llvm.trap()
  unreachable

_ZN4absl7debian28AlphaNumC2Em.exit:               ; preds = %2
  %10 = getelementptr inbounds nuw i8, ptr %0, i64 8
  store i64 %7, ptr %10, align 8, !tbaa !18
  ret void
}